; Function Attrs: mustprogress uwtable
define void @_ZNK21SelectionFilterPlugin16pythonFilterNameEi(ptr dead_on_unwind noalias writable sret(%class.QString) align 8 %0, ptr nocapture nonnull readnone align 8 %1, i32 noundef %2) unnamed_addr #9 align 2 {
  switch i32 %2, label %28 [
    i32 0, label %4
    i32 1, label %5
    i32 4, label %6
    i32 5, label %7
    i32 8, label %8
    i32 9, label %9
    i32 10, label %10
    i32 11, label %11
    i32 2, label %12
    i32 3, label %13
    i32 6, label %14
    i32 7, label %15
    i32 12, label %16
    i32 13, label %17
    i32 14, label %18
    i32 16, label %19
    i32 15, label %20
    i32 18, label %21
    i32 19, label %22
    i32 20, label %23
    i32 21, label %24
    i32 22, label %25
    i32 23, label %26
    i32 24, label %27
  ]

4:                                                ; preds = %3
  tail call void @_ZNK11QMetaObject2trEPKcS1_i(ptr dead_on_unwind writable sret(%class.QString) align 8 %0, ptr noundef nonnull align 8 dereferenceable(48) @_ZN21SelectionFilterPlugin16staticMetaObjectE, ptr noundef nonnull @.str.20, ptr noundef null, i32 noundef -1)
  br label %29

5:                                                ; preds = %3
  tail call void @_ZNK11QMetaObject2trEPKcS1_i(ptr dead_on_unwind writable sret(%class.QString) align 8 %0, ptr noundef nonnull align 8 dereferenceable(48) @_ZN21SelectionFilterPlugin16staticMetaObjectE, ptr noundef nonnull @.str.21, ptr noundef null, i32 noundef -1)
  br label %29

6:                                                ; preds = %3
  tail call void @_ZNK11QMetaObject2trEPKcS1_i(ptr dead_on_unwind writable sret(%class.QString) align 8 %0, ptr noundef nonnull align 8 dereferenceable(48) @_ZN21SelectionFilterPlugin16staticMetaObjectE, ptr noundef nonnull @.str.22, ptr noundef null, i32 noundef -1)
  br label %29

7:                                                ; preds = %3
  tail call void @_ZNK11QMetaObject2trEPKcS1_i(ptr dead_on_unwind writable sret(%class.QString) align 8 %0, ptr noundef nonnull align 8 dereferenceable(48) @_ZN21SelectionFilterPlugin16staticMetaObjectE, ptr noundef nonnull @.str.23, ptr noundef null, i32 noundef -1)
  br label %29

8:                                                ; preds = %3
  tail call void @_ZNK11QMetaObject2trEPKcS1_i(ptr dead_on_unwind writable sret(%class.QString) align 8 %0, ptr noundef nonnull align 8 dereferenceable(48) @_ZN21SelectionFilterPlugin16staticMetaObjectE, ptr noundef nonnull @.str.24, ptr noundef null, i32 noundef -1)
  br label %29

9:                                                ; preds = %3
  tail call void @_ZNK11QMetaObject2trEPKcS1_i(ptr dead_on_unwind writable sret(%class.QString) align 8 %0, ptr noundef nonnull align 8 dereferenceable(48) @_ZN21SelectionFilterPlugin16staticMetaObjectE, ptr noundef nonnull @.str.25, ptr noundef null, i32 noundef -1)
  br label %29

10:                                               ; preds = %3
  tail call void @_ZNK11QMetaObject2trEPKcS1_i(ptr dead_on_unwind writable sret(%class.QString) align 8 %0, ptr noundef nonnull align 8 dereferenceable(48) @_ZN21SelectionFilterPlugin16staticMetaObjectE, ptr noundef nonnull @.str.26, ptr noundef null, i32 noundef -1)
  br label %29

11:                                               ; preds = %3
  tail call void @_ZNK11QMetaObject2trEPKcS1_i(ptr dead_on_unwind writable sret(%class.QString) align 8 %0, ptr noundef nonnull align 8 dereferenceable(48) @_ZN21SelectionFilterPlugin16staticMetaObjectE, ptr noundef nonnull @.str.27, ptr noundef null, i32 noundef -1)
  br label %29

12:                                               ; preds = %3
  tail call void @_ZNK11QMetaObject2trEPKcS1_i(ptr dead_on_unwind writable sret(%class.QString) align 8 %0, ptr noundef nonnull align 8 dereferenceable(48) @_ZN21SelectionFilterPlugin16staticMetaObjectE, ptr noundef nonnull @.str.28, ptr noundef null, i32 noundef -1)
  br label %29

13:                                               ; preds = %3
  tail call void @_ZNK11QMetaObject2trEPKcS1_i(ptr dead_on_unwind writable sret(%class.QString) align 8 %0, ptr noundef nonnull align 8 dereferenceable(48) @_ZN21SelectionFilterPlugin16staticMetaObjectE, ptr noundef nonnull @.str.29, ptr noundef null, i32 noundef -1)
  br label %29

14:                                               ; preds = %3
  tail call void @_ZNK11QMetaObject2trEPKcS1_i(ptr dead_on_unwind writable sret(%class.QString) align 8 %0, ptr noundef nonnull align 8 dereferenceable(48) @_ZN21SelectionFilterPlugin16staticMetaObjectE, ptr noundef nonnull @.str.30, ptr noundef null, i32 noundef -1)
  br label %29

15:                                               ; preds = %3
  tail call void @_ZNK11QMetaObject2trEPKcS1_i(ptr dead_on_unwind writable sret(%class.QString) align 8 %0, ptr noundef nonnull align 8 dereferenceable(48) @_ZN21SelectionFilterPlugin16staticMetaObjectE, ptr noundef nonnull @.str.31, ptr noundef null, i32 noundef -1)
  br label %29

16:                                               ; preds = %3
  tail call void @_ZNK11QMetaObject2trEPKcS1_i(ptr dead_on_unwind writable sret(%class.QString) align 8 %0, ptr noundef nonnull align 8 dereferenceable(48) @_ZN21SelectionFilterPlugin16staticMetaObjectE, ptr noundef nonnull @.str.32, ptr noundef null, i32 noundef -1)
  br label %29

17:                                               ; preds = %3
  tail call void @_ZNK11QMetaObject2trEPKcS1_i(ptr dead_on_unwind writable sret(%class.QString) align 8 %0, ptr noundef nonnull align 8 dereferenceable(48) @_ZN21SelectionFilterPlugin16staticMetaObjectE, ptr noundef nonnull @.str.33, ptr noundef null, i32 noundef -1)
  br label %29

18:                                               ; preds = %3
  tail call void @_ZNK11QMetaObject2trEPKcS1_i(ptr dead_on_unwind writable sret(%class.QString) align 8 %0, ptr noundef nonnull align 8 dereferenceable(48) @_ZN21SelectionFilterPlugin16staticMetaObjectE, ptr noundef nonnull @.str.34, ptr noundef null, i32 noundef -1)
  br label %29

19:                                               ; preds = %3
  tail call void @_ZNK11QMetaObject2trEPKcS1_i(ptr dead_on_unwind writable sret(%class.QString) align 8 %0, ptr noundef nonnull align 8 dereferenceable(48) @_ZN21SelectionFilterPlugin16staticMetaObjectE, ptr noundef nonnull @.str.35, ptr noundef null, i32 noundef -1)
  br label %29

20:                                               ; preds = %3
  tail call void @_ZNK11QMetaObject2trEPKcS1_i(ptr dead_on_unwind writable sret(%class.QString) align 8 %0, ptr noundef nonnull align 8 dereferenceable(48) @_ZN21SelectionFilterPlugin16staticMetaObjectE, ptr noundef nonnull @.str.36, ptr noundef null, i32 noundef -1)
  br label %29

21:                                               ; preds = %3
  tail call void @_ZNK11QMetaObject2trEPKcS1_i(ptr dead_on_unwind writable sret(%class.QString) align 8 %0, ptr noundef nonnull align 8 dereferenceable(48) @_ZN21SelectionFilterPlugin16staticMetaObjectE, ptr noundef nonnull @.str.37, ptr noundef null, i32 noundef -1)
  br label %29

22:                                               ; preds = %3
  tail call void @_ZNK11QMetaObject2trEPKcS1_i(ptr dead_on_unwind writable sret(%class.QString) align 8 %0, ptr noundef nonnull align 8 dereferenceable(48) @_ZN21SelectionFilterPlugin16staticMetaObjectE, ptr noundef nonnull @.str.38, ptr noundef null, i32 noundef -1)
  br label %29

23:                                               ; preds = %3
  tail call void @_ZNK11QMetaObject2trEPKcS1_i(ptr dead_on_unwind writable sret(%class.QString) align 8 %0, ptr noundef nonnull align 8 dereferenceable(48) @_ZN21SelectionFilterPlugin16staticMetaObjectE, ptr noundef nonnull @.str.39, ptr noundef null, i32 noundef -1)
  br label %29

24:                                               ; preds = %3
  tail call void @_ZNK11QMetaObject2trEPKcS1_i(ptr dead_on_unwind writable sret(%class.QString) align 8 %0, ptr noundef nonnull align 8 dereferenceable(48) @_ZN21SelectionFilterPlugin16staticMetaObjectE, ptr noundef nonnull @.str.40, ptr noundef null, i32 noundef -1)
  br label %29

25:                                               ; preds = %3
  tail call void @_ZNK11QMetaObject2trEPKcS1_i(ptr dead_on_unwind writable sret(%class.QString) align 8 %0, ptr noundef nonnull align 8 dereferenceable(48) @_ZN21SelectionFilterPlugin16staticMetaObjectE, ptr noundef nonnull @.str.41, ptr noundef null, i32 noundef -1)
  br label %29

26:                                               ; preds = %3
  tail call void @_ZNK11QMetaObject2trEPKcS1_i(ptr dead_on_unwind writable sret(%class.QString) align 8 %0, ptr noundef nonnull align 8 dereferenceable(48) @_ZN21SelectionFilterPlugin16staticMetaObjectE, ptr noundef nonnull @.str.42, ptr noundef null, i32 noundef -1)
  br label %29

27:                                               ; preds = %3
  tail call void @_ZNK11QMetaObject2trEPKcS1_i(ptr dead_on_unwind writable sret(%class.QString) align 8 %0, ptr noundef nonnull align 8 dereferenceable(48) @_ZN21SelectionFilterPlugin16staticMetaObjectE, ptr noundef nonnull @.str.43, ptr noundef null, i32 noundef -1)
  br label %29

28:                                               ; preds = %3
  store ptr @_ZN10QArrayData11shared_nullE, ptr %0, align 8
  br label %29

29:                                               ; preds = %28, %27, %26, %25, %24, %23, %22, %21, %20, %19, %18, %17, %16, %15, %14, %13, %12, %11, %10, %9, %8, %7, %6, %5, %4
  ret void
}